; Function Attrs: nounwind uwtable
define internal ptr @async_gen_anext(ptr noundef %0) #2 {
  %2 = tail call fastcc i32 @async_gen_init_hooks(ptr noundef %0)
  %.not = icmp eq i32 %2, 0
  br i1 %.not, label %3, label %async_gen_asend_new.exit

3:                                                ; preds = %1
  %4 = tail call align 8 ptr @llvm.threadlocal.address.p0(ptr align 8 @_Py_tss_tstate)
  %5 = load ptr, ptr %4, align 8, !tbaa !39
  %6 = getelementptr inbounds nuw i8, ptr %5, i64 16
  %7 = load ptr, ptr %6, align 8, !tbaa !41
  %8 = getelementptr inbounds nuw i8, ptr %7, i64 11512
  %9 = load ptr, ptr %8, align 8, !tbaa !165
  %.not.i.i.i = icmp eq ptr %9, null
  br i1 %.not.i.i.i, label %14, label %_PyFreeList_Pop.exit.i

_PyFreeList_Pop.exit.i:                           ; preds = %3
  %10 = load ptr, ptr %9, align 8, !tbaa !143
  store ptr %10, ptr %8, align 8, !tbaa !165
  %11 = getelementptr inbounds nuw i8, ptr %7, i64 11520
  %12 = load i64, ptr %11, align 8, !tbaa !164
  %13 = add i64 %12, -1
  store i64 %13, ptr %11, align 8, !tbaa !164
  tail call void @_Py_NewReference(ptr noundef nonnull %9) #8
  br label %17

14:                                               ; preds = %3
  %15 = tail call ptr @_PyObject_GC_New(ptr noundef nonnull @_PyAsyncGenASend_Type) #8
  %16 = icmp eq ptr %15, null
  br i1 %16, label %async_gen_asend_new.exit, label %17

17:                                               ; preds = %14, %_PyFreeList_Pop.exit.i
  %.0.i = phi ptr [ %15, %14 ], [ %9, %_PyFreeList_Pop.exit.i ]
  %18 = load i32, ptr %0, align 8, !tbaa !4
  %19 = icmp slt i32 %18, 0
  br i1 %19, label %_Py_NewRef.exit.i, label %20

20:                                               ; preds = %17
  %21 = add nuw i32 %18, 1
  store i32 %21, ptr %0, align 8, !tbaa !4
  br label %_Py_NewRef.exit.i

_Py_NewRef.exit.i:                                ; preds = %20, %17
  %22 = getelementptr inbounds nuw i8, ptr %.0.i, i64 16
  store ptr %0, ptr %22, align 8, !tbaa !166
  %23 = getelementptr inbounds nuw i8, ptr %.0.i, i64 24
  store ptr null, ptr %23, align 8, !tbaa !168
  %24 = getelementptr inbounds nuw i8, ptr %.0.i, i64 32
  store i32 0, ptr %24, align 8, !tbaa !169
  %25 = getelementptr i8, ptr %.0.i, i64 -16
  %26 = load ptr, ptr %4, align 8, !tbaa !39
  %27 = getelementptr inbounds nuw i8, ptr %26, i64 16
  %28 = load ptr, ptr %27, align 8, !tbaa !41
  %29 = getelementptr inbounds nuw i8, ptr %28, i64 7424
  %30 = getelementptr inbounds nuw i8, ptr %28, i64 7432
  %31 = load i64, ptr %30, align 8, !tbaa !35
  %32 = inttoptr i64 %31 to ptr
  %33 = ptrtoint ptr %25 to i64
  %34 = load i64, ptr %32, align 8, !tbaa !37
  %35 = and i64 %34, 3
  %36 = or i64 %35, %33
  store i64 %36, ptr %32, align 8, !tbaa !37
  %37 = getelementptr i8, ptr %.0.i, i64 -8
  %38 = load i64, ptr %37, align 8, !tbaa !35
  %39 = and i64 %38, 3
  %40 = or i64 %39, %31
  store i64 %40, ptr %37, align 8, !tbaa !35
  %41 = getelementptr inbounds nuw i8, ptr %28, i64 7632
  %42 = load i32, ptr %41, align 8, !tbaa !47
  %43 = xor i32 %42, 1
  %44 = sext i32 %43 to i64
  %45 = ptrtoint ptr %29 to i64
  %46 = or i64 %44, %45
  store i64 %46, ptr %25, align 8, !tbaa !37
  store i64 %33, ptr %30, align 8, !tbaa !35
  br label %async_gen_asend_new.exit

async_gen_asend_new.exit:                         ; preds = %_Py_NewRef.exit.i, %14, %1
  %.0 = phi ptr [ null, %1 ], [ %.0.i, %_Py_NewRef.exit.i ], [ null, %14 ]
  ret ptr %.0
}